; Function Attrs: nounwind uwtable
define dso_local range(i64 -2147483648, 2147483648) i64 @prsd_nexttoken(ptr noundef readonly captures(none) %0) local_unnamed_addr #0 {
  %2 = getelementptr inbounds nuw i8, ptr %0, i64 32
  %3 = load i64, ptr %2, align 8
  %4 = inttoptr i64 %3 to ptr
  %5 = getelementptr inbounds nuw i8, ptr %0, i64 48
  %6 = load i64, ptr %5, align 8
  %7 = getelementptr inbounds nuw i8, ptr %0, i64 64
  %8 = load i64, ptr %7, align 8
  %9 = tail call fastcc zeroext i1 @TParserGet(ptr noundef %4)
  br i1 %9, label %10, label %20

10:                                               ; preds = %1
  %11 = inttoptr i64 %8 to ptr
  %12 = inttoptr i64 %6 to ptr
  %13 = getelementptr inbounds nuw i8, ptr %4, i64 56
  %14 = load ptr, ptr %13, align 8
  store ptr %14, ptr %12, align 8
  %15 = getelementptr inbounds nuw i8, ptr %4, i64 64
  %16 = load i32, ptr %15, align 8
  store i32 %16, ptr %11, align 4
  %17 = getelementptr inbounds nuw i8, ptr %4, i64 72
  %18 = load i32, ptr %17, align 8
  %19 = sext i32 %18 to i64
  br label %20

20:                                               ; preds = %1, %10
  %.0 = phi i64 [ %19, %10 ], [ 0, %1 ]
  ret i64 %.0
}